target datalayout = "e-m:e-p270:32:32-p271:32:32-p272:64:64-i64:64-i128:128-f80:128-n8:16:32:64-S128"
target triple = "x86_64-pc-linux-gnu"

%"class.cvc5::internal::NodeTemplate" = type { ptr }
%"class.cvc5::internal::theory::strings::ExtfSolver" = type { %"class.cvc5::internal::theory::strings::InferSideEffectProcess", %"class.cvc5::internal::EnvObj", ptr, ptr, ptr, ptr, ptr, ptr, ptr, ptr, %"class.cvc5::internal::theory::strings::StringsPreprocess", %"class.cvc5::internal::NodeTemplate", %"class.cvc5::internal::NodeTemplate", %"class.std::vector", %"class.std::map.3", %"class.cvc5::context::CDO", %"class.cvc5::context::CDHashSet", %"class.cvc5::context::CDHashSet", %"class.std::map" }
%"class.cvc5::internal::theory::strings::InferSideEffectProcess" = type { ptr }
%"class.cvc5::internal::EnvObj" = type { ptr, ptr }
%"class.cvc5::internal::theory::strings::StringsPreprocess" = type { %"class.cvc5::internal::EnvObj", ptr, ptr, %"class.std::map" }
%"class.std::vector" = type { %"struct.std::_Vector_base" }
%"struct.std::_Vector_base" = type { %"struct.std::_Vector_base<cvc5::internal::NodeTemplate<true>, std::allocator<cvc5::internal::NodeTemplate<true>>>::_Vector_impl" }
%"struct.std::_Vector_base<cvc5::internal::NodeTemplate<true>, std::allocator<cvc5::internal::NodeTemplate<true>>>::_Vector_impl" = type { %"struct.std::_Vector_base<cvc5::internal::NodeTemplate<true>, std::allocator<cvc5::internal::NodeTemplate<true>>>::_Vector_impl_data" }
%"struct.std::_Vector_base<cvc5::internal::NodeTemplate<true>, std::allocator<cvc5::internal::NodeTemplate<true>>>::_Vector_impl_data" = type { ptr, ptr, ptr }
%"class.std::map.3" = type { %"class.std::_Rb_tree.4" }
%"class.std::_Rb_tree.4" = type { %"struct.std::_Rb_tree<cvc5::internal::NodeTemplate<true>, std::pair<const cvc5::internal::NodeTemplate<true>, cvc5::internal::theory::strings::ExtfInfoTmp>, std::_Select1st<std::pair<const cvc5::internal::NodeTemplate<true>, cvc5::internal::theory::strings::ExtfInfoTmp>>, std::less<cvc5::internal::NodeTemplate<true>>>::_Rb_tree_impl" }
%"struct.std::_Rb_tree<cvc5::internal::NodeTemplate<true>, std::pair<const cvc5::internal::NodeTemplate<true>, cvc5::internal::theory::strings::ExtfInfoTmp>, std::_Select1st<std::pair<const cvc5::internal::NodeTemplate<true>, cvc5::internal::theory::strings::ExtfInfoTmp>>, std::less<cvc5::internal::NodeTemplate<true>>>::_Rb_tree_impl" = type { [8 x i8], %"struct.std::_Rb_tree_header" }
%"struct.std::_Rb_tree_header" = type { %"struct.std::_Rb_tree_node_base", i64 }
%"struct.std::_Rb_tree_node_base" = type { i32, ptr, ptr, ptr }
%"class.cvc5::context::CDO" = type <{ %"class.cvc5::context::ContextObj", i8, [7 x i8] }>
%"class.cvc5::context::ContextObj" = type { ptr, ptr, ptr, ptr, ptr }
%"class.cvc5::context::CDHashSet" = type { %"class.cvc5::context::CDInsertHashMap" }
%"class.cvc5::context::CDInsertHashMap" = type { %"class.cvc5::context::ContextObj", ptr, i64 }
%"class.std::map" = type { %"class.std::_Rb_tree" }
%"class.std::_Rb_tree" = type { %"struct.std::_Rb_tree<cvc5::internal::NodeTemplate<true>, std::pair<const cvc5::internal::NodeTemplate<true>, cvc5::internal::NodeTemplate<true>>, std::_Select1st<std::pair<const cvc5::internal::NodeTemplate<true>, cvc5::internal::NodeTemplate<true>>>, std::less<cvc5::internal::NodeTemplate<true>>>::_Rb_tree_impl" }
%"struct.std::_Rb_tree<cvc5::internal::NodeTemplate<true>, std::pair<const cvc5::internal::NodeTemplate<true>, cvc5::internal::NodeTemplate<true>>, std::_Select1st<std::pair<const cvc5::internal::NodeTemplate<true>, cvc5::internal::NodeTemplate<true>>>, std::less<cvc5::internal::NodeTemplate<true>>>::_Rb_tree_impl" = type { [8 x i8], %"struct.std::_Rb_tree_header" }

; Function Attrs: mustprogress uwtable
define linkonce_odr hidden noundef zeroext i1 @_ZN4cvc57context9CDHashSetINS_8internal12NodeTemplateILb1EEESt4hashIS4_EE6insertERKS4_(ptr noundef nonnull align 8 dereferenceable(56) %0, ptr noundef nonnull align 8 dereferenceable(8) %1) #4 comdat align 2 {
  %3 = alloca ptr, align 8
  %4 = alloca ptr, align 8
  %5 = alloca i8, align 1
  store ptr %0, ptr %3, align 8, !tbaa !83
  store ptr %1, ptr %4, align 8, !tbaa !68
  %6 = load ptr, ptr %3, align 8
  %7 = load ptr, ptr %4, align 8, !tbaa !68
  call void @llvm.lifetime.start.p0(i64 1, ptr %5) #3
  store i8 1, ptr %5, align 1, !tbaa !64
  %8 = call noundef zeroext i1 @_ZN4cvc57context15CDInsertHashMapINS_8internal12NodeTemplateILb1EEEbSt4hashIS4_EE11insert_safeERKS4_RKb(ptr noundef nonnull align 8 dereferenceable(56) %6, ptr noundef nonnull align 8 dereferenceable(8) %7, ptr noundef nonnull align 1 dereferenceable(1) %5)
  call void @llvm.lifetime.end.p0(i64 1, ptr %5) #3
  ret i1 %8
}

; Function Attrs: mustprogress uwtable
define hidden void @_ZN4cvc58internal6theory7strings10ExtfSolver11markReducedERKNS0_12NodeTemplateILb1EEE(ptr noundef nonnull align 8 dereferenceable(464) %0, ptr noundef nonnull align 8 dereferenceable(8) %1) #4 align 2 {
  %3 = alloca ptr, align 8
  %4 = alloca ptr, align 8
  store ptr %0, ptr %3, align 8, !tbaa !3
  store ptr %1, ptr %4, align 8, !tbaa !68
  %5 = load ptr, ptr %3, align 8
  %6 = getelementptr inbounds nuw %"class.cvc5::internal::theory::strings::ExtfSolver", ptr %5, i32 0, i32 17
  %7 = load ptr, ptr %4, align 8, !tbaa !68
  %8 = call noundef zeroext i1 @_ZN4cvc57context9CDHashSetINS_8internal12NodeTemplateILb1EEESt4hashIS4_EE6insertERKS4_(ptr noundef nonnull align 8 dereferenceable(56) %6, ptr noundef nonnull align 8 dereferenceable(8) %7)
  ret void
}