; Function Attrs: mustprogress uwtable
define hidden void @_ZN4cvc58internal6theory7strings10ExtfSolver11markReducedERKNS0_12NodeTemplateILb1EEE(ptr noundef nonnull align 8 dereferenceable(464) %0, ptr noundef nonnull align 8 dereferenceable(8) %1) local_unnamed_addr #3 align 2 {
  %3 = alloca i8, align 1
  %4 = getelementptr inbounds nuw i8, ptr %0, i64 360
  call void @llvm.lifetime.start.p0(i64 1, ptr nonnull %3) #27
  store i8 1, ptr %3, align 1, !tbaa !96
  %5 = call noundef zeroext i1 @_ZN4cvc57context15CDInsertHashMapINS_8internal12NodeTemplateILb1EEEbSt4hashIS4_EE11insert_safeERKS4_RKb(ptr noundef nonnull align 8 dereferenceable(56) %4, ptr noundef nonnull align 8 dereferenceable(8) %1, ptr noundef nonnull align 1 dereferenceable(1) %3)
  call void @llvm.lifetime.end.p0(i64 1, ptr nonnull %3) #27
  ret void
}